; Function Attrs: nounwind uwtable
define void @Aig_ObjDelete_rec(ptr noundef %0, ptr noundef %1, i32 noundef %2) local_unnamed_addr #0 {
  %4 = getelementptr inbounds nuw i8, ptr %0, i64 176
  %5 = getelementptr inbounds nuw i8, ptr %0, i64 40
  %6 = getelementptr inbounds nuw i8, ptr %0, i64 128
  %7 = getelementptr inbounds nuw i8, ptr %0, i64 32
  %8 = getelementptr inbounds nuw i8, ptr %0, i64 272
  %9 = getelementptr inbounds nuw i8, ptr %0, i64 156
  %10 = icmp eq i32 %2, 0
  %.phi.trans.insert = getelementptr i8, ptr %1, i64 24
  %.val26.pre = load i64, ptr %.phi.trans.insert, align 8
  br label %tailrecurse

tailrecurse:                                      ; preds = %74, %3
  %.val26 = phi i64 [ %.val26.pre, %3 ], [ %.val29, %74 ]
  %.tr38 = phi ptr [ %1, %3 ], [ %21, %74 ]
  %.tr39 = phi i1 [ %10, %3 ], [ false, %74 ]
  %11 = getelementptr i8, ptr %.tr38, i64 24
  %12 = and i64 %.val26, 7
  %.off = add nsw i64 %12, -1
  %switch = icmp ult i64 %.off, 2
  br i1 %switch, label %80, label %13

13:                                               ; preds = %tailrecurse
  %14 = getelementptr i8, ptr %.tr38, i64 8
  %.val = load ptr, ptr %14, align 8, !tbaa !31
  %15 = ptrtoint ptr %.val to i64
  %16 = and i64 %15, -2
  %17 = inttoptr i64 %16 to ptr
  %18 = getelementptr i8, ptr %.tr38, i64 16
  %.val25 = load ptr, ptr %18, align 8, !tbaa !32
  %19 = ptrtoint ptr %.val25 to i64
  %20 = and i64 %19, -2
  %21 = inttoptr i64 %20 to ptr
  tail call void @Aig_ObjDisconnect(ptr noundef %0, ptr noundef nonnull %.tr38)
  br i1 %.tr39, label %65, label %22

22:                                               ; preds = %13
  %23 = load ptr, ptr %4, align 8, !tbaa !33
  %.not.i = icmp ne ptr %23, null
  %.pre41 = load i64, ptr %11, align 8
  %24 = and i64 %.pre41, 7
  %.not12.i = icmp eq i64 %24, 4
  %or.cond42 = select i1 %.not.i, i1 %.not12.i, i1 false
  br i1 %or.cond42, label %25, label %Aig_ObjDelete.exit

25:                                               ; preds = %22
  %26 = load ptr, ptr %5, align 8, !tbaa !40
  %27 = getelementptr inbounds nuw i8, ptr %26, i64 4
  %28 = load i32, ptr %27, align 4, !tbaa !22
  %29 = getelementptr inbounds nuw i8, ptr %26, i64 8
  %30 = zext i32 %28 to i64
  %smin.i.i = tail call i32 @llvm.smin.i32(i32 %28, i32 0)
  br label %31

31:                                               ; preds = %34, %25
  %indvars.iv.i.i = phi i64 [ %35, %34 ], [ %30, %25 ]
  %32 = trunc nuw i64 %indvars.iv.i.i to i32
  %33 = icmp sgt i32 %32, 0
  br i1 %33, label %34, label %40

34:                                               ; preds = %31
  %35 = add nsw i64 %indvars.iv.i.i, -1
  %36 = load ptr, ptr %29, align 8, !tbaa !26
  %37 = getelementptr inbounds nuw ptr, ptr %36, i64 %35
  %38 = load ptr, ptr %37, align 8, !tbaa !27
  %39 = icmp eq ptr %38, %.tr38
  br i1 %39, label %40, label %31, !llvm.loop !41

40:                                               ; preds = %34, %31
  %.0.in.lcssa.i.i = phi i32 [ %32, %34 ], [ %smin.i.i, %31 ]
  %41 = icmp slt i32 %.0.in.lcssa.i.i, %28
  br i1 %41, label %.lr.ph.i.i, label %Vec_PtrRemove.exit.i

.lr.ph.i.i:                                       ; preds = %40
  %42 = sext i32 %.0.in.lcssa.i.i to i64
  %wide.trip.count.i.i = sext i32 %28 to i64
  br label %43

43:                                               ; preds = %43, %.lr.ph.i.i
  %indvars.iv18.i.i = phi i64 [ %42, %.lr.ph.i.i ], [ %indvars.iv.next19.i.i, %43 ]
  %44 = load ptr, ptr %29, align 8, !tbaa !26
  %45 = getelementptr inbounds ptr, ptr %44, i64 %indvars.iv18.i.i
  %46 = load ptr, ptr %45, align 8, !tbaa !27
  %47 = getelementptr i8, ptr %45, i64 -8
  store ptr %46, ptr %47, align 8, !tbaa !27
  %indvars.iv.next19.i.i = add nsw i64 %indvars.iv18.i.i, 1
  %exitcond.not.i.i = icmp eq i64 %indvars.iv.next19.i.i, %wide.trip.count.i.i
  br i1 %exitcond.not.i.i, label %Vec_PtrRemove.exit.i, label %43, !llvm.loop !43

Vec_PtrRemove.exit.i:                             ; preds = %43, %40
  %48 = add nsw i32 %28, -1
  store i32 %48, ptr %27, align 4, !tbaa !22
  %.pre = load i64, ptr %11, align 8
  br label %Aig_ObjDelete.exit

Aig_ObjDelete.exit:                               ; preds = %22, %Vec_PtrRemove.exit.i
  %49 = phi i64 [ %.pre41, %22 ], [ %.pre, %Vec_PtrRemove.exit.i ]
  %50 = and i64 %49, 7
  %51 = getelementptr inbounds nuw [7 x i32], ptr %6, i64 0, i64 %50
  %52 = load i32, ptr %51, align 4, !tbaa !29
  %53 = add nsw i32 %52, -1
  store i32 %53, ptr %51, align 4, !tbaa !29
  %54 = load ptr, ptr %7, align 8, !tbaa !21
  %55 = getelementptr inbounds nuw i8, ptr %.tr38, i64 36
  %56 = load i32, ptr %55, align 4, !tbaa !24
  %57 = getelementptr i8, ptr %54, i64 8
  %.val11.i = load ptr, ptr %57, align 8, !tbaa !26
  %58 = sext i32 %56 to i64
  %59 = getelementptr inbounds ptr, ptr %.val11.i, i64 %58
  store ptr null, ptr %59, align 8, !tbaa !27
  %60 = load i64, ptr %11, align 8
  %61 = and i64 %60, -8
  store i64 %61, ptr %11, align 8
  %62 = load ptr, ptr %8, align 8, !tbaa !3
  tail call void @Aig_MmFixedEntryRecycle(ptr noundef %62, ptr noundef nonnull %.tr38) #11
  %63 = load i32, ptr %9, align 4, !tbaa !44
  %64 = add nsw i32 %63, 1
  store i32 %64, ptr %9, align 4, !tbaa !44
  br label %65

65:                                               ; preds = %Aig_ObjDelete.exit, %13
  %.not21 = icmp eq i64 %16, 0
  br i1 %.not21, label %73, label %66

66:                                               ; preds = %65
  %67 = getelementptr i8, ptr %17, i64 24
  %.val28 = load i64, ptr %67, align 8
  %68 = and i64 %.val28, 7
  %69 = icmp ne i64 %68, 0
  %70 = and i64 %.val28, 4294967232
  %71 = icmp eq i64 %70, 0
  %or.cond = and i1 %69, %71
  br i1 %or.cond, label %72, label %73

72:                                               ; preds = %66
  tail call void @Aig_ObjDelete_rec(ptr noundef %0, ptr noundef nonnull %17, i32 noundef 1)
  br label %73

73:                                               ; preds = %72, %66, %65
  %.not23 = icmp eq i64 %20, 0
  br i1 %.not23, label %80, label %74

74:                                               ; preds = %73
  %75 = getelementptr i8, ptr %21, i64 24
  %.val29 = load i64, ptr %75, align 8
  %76 = and i64 %.val29, 7
  %77 = icmp ne i64 %76, 0
  %78 = and i64 %.val29, 4294967232
  %79 = icmp eq i64 %78, 0
  %or.cond36 = and i1 %77, %79
  br i1 %or.cond36, label %tailrecurse, label %80

80:                                               ; preds = %tailrecurse, %73, %74
  ret void
}